target datalayout = "e-m:e-p270:32:32-p271:32:32-p272:64:64-i64:64-i128:128-f80:128-n8:16:32:64-S128"
target triple = "x86_64-pc-linux-gnu"

; Function Attrs: nounwind ssp uwtable
define dso_local i32 @crypto_secretbox_xchacha20poly1305_easy(ptr noundef nonnull %0, ptr noundef %1, i64 noundef %2, ptr noundef nonnull %3, ptr noundef nonnull %4) #0 {
  %6 = alloca ptr, align 8
  %7 = alloca ptr, align 8
  %8 = alloca i64, align 8
  %9 = alloca ptr, align 8
  %10 = alloca ptr, align 8
  store ptr %0, ptr %6, align 8
  store ptr %1, ptr %7, align 8
  store i64 %2, ptr %8, align 8
  store ptr %3, ptr %9, align 8
  store ptr %4, ptr %10, align 8
  %11 = load i64, ptr %8, align 8
  %12 = icmp ugt i64 %11, -17
  br i1 %12, label %13, label %14

13:                                               ; preds = %5
  call void @sodium_misuse() #8
  unreachable

14:                                               ; preds = %5
  %15 = load ptr, ptr %6, align 8
  %16 = getelementptr i8, ptr %15, i64 16
  %17 = load ptr, ptr %6, align 8
  %18 = load ptr, ptr %7, align 8
  %19 = load i64, ptr %8, align 8
  %20 = load ptr, ptr %9, align 8
  %21 = load ptr, ptr %10, align 8
  %22 = call i32 @crypto_secretbox_xchacha20poly1305_detached(ptr noundef %16, ptr noundef %17, ptr noundef %18, i64 noundef %19, ptr noundef %20, ptr noundef %21)
  ret i32 %22
}