; Function Attrs: nounwind ssp uwtable
define dso_local noundef i32 @crypto_secretbox_xchacha20poly1305_easy(ptr noundef nonnull %0, ptr noundef %1, i64 noundef %2, ptr noundef nonnull %3, ptr noundef nonnull %4) local_unnamed_addr #0 {
  %6 = icmp ugt i64 %2, -17
  br i1 %6, label %7, label %8

7:                                                ; preds = %5
  tail call void @sodium_misuse() #9
  unreachable

8:                                                ; preds = %5
  %9 = getelementptr i8, ptr %0, i64 16
  %10 = tail call i32 @crypto_secretbox_xchacha20poly1305_detached(ptr noundef %9, ptr noundef %0, ptr noundef %1, i64 noundef %2, ptr noundef %3, ptr noundef %4)
  ret i32 0
}